target datalayout = "e-m:e-p270:32:32-p271:32:32-p272:64:64-i64:64-i128:128-f80:128-n8:16:32:64-S128"
target triple = "x86_64-pc-linux-gnu"

%"struct.duckdb_zstd::buffer_s" = type { ptr, i64 }
%"struct.duckdb_zstd::range_t" = type { ptr, i64 }
%"struct.duckdb_zstd::ZSTD_customMem" = type { ptr, ptr, ptr }
%"struct.duckdb_zstd::ZSTDMT_CCtx_s" = type { ptr, ptr, ptr, ptr, ptr, %"struct.duckdb_zstd::ZSTD_CCtx_params_s", i64, i64, i32, %"struct.duckdb_zstd::inBuff_t", %"struct.duckdb_zstd::roundBuff_t", %"struct.duckdb_zstd::serialState_t", %"struct.duckdb_zstd::rsyncState_t", i32, i32, i32, i32, i32, i64, i64, i64, %"struct.duckdb_zstd::ZSTD_customMem", ptr, ptr, i8 }
%"struct.duckdb_zstd::ZSTD_CCtx_params_s" = type { i32, %"struct.duckdb_zstd::ZSTD_compressionParameters", %"struct.duckdb_zstd::ZSTD_frameParameters", i32, i32, i64, i32, i32, i32, i32, i64, i32, i32, %"struct.duckdb_zstd::ldmParams_t", i32, i32, i32, i32, i32, i32, i32, i32, %"struct.duckdb_zstd::ZSTD_customMem", i32, i32, ptr, ptr, i64, i32 }
%"struct.duckdb_zstd::ZSTD_compressionParameters" = type { i32, i32, i32, i32, i32, i32, i32 }
%"struct.duckdb_zstd::ZSTD_frameParameters" = type { i32, i32, i32 }
%"struct.duckdb_zstd::ldmParams_t" = type { i32, i32, i32, i32, i32, i32 }
%"struct.duckdb_zstd::inBuff_t" = type { %"struct.duckdb_zstd::range_t", %"struct.duckdb_zstd::buffer_s", i64 }
%"struct.duckdb_zstd::roundBuff_t" = type { ptr, i64, i64 }
%"struct.duckdb_zstd::serialState_t" = type { i32, i32, %"struct.duckdb_zstd::ZSTD_CCtx_params_s", %"struct.duckdb_zstd::ldmState_t", %"struct.duckdb_zstd::XXH64_state_s", i32, i32, i32, %"struct.duckdb_zstd::ZSTD_window_t" }
%"struct.duckdb_zstd::ldmState_t" = type { %"struct.duckdb_zstd::ZSTD_window_t", ptr, i32, ptr, [64 x i64], [64 x %"struct.duckdb_zstd::ldmMatchCandidate_t"] }
%"struct.duckdb_zstd::ldmMatchCandidate_t" = type { ptr, i32, i32, ptr }
%"struct.duckdb_zstd::XXH64_state_s" = type { i64, i64, i64, i64, i64, [4 x i64], i32, [2 x i32] }
%"struct.duckdb_zstd::ZSTD_window_t" = type { ptr, ptr, ptr, i32, i32, i32 }
%"struct.duckdb_zstd::rsyncState_t" = type { i64, i64, i64 }
%"struct.duckdb_zstd::ZSTDMT_jobDescription" = type { i64, i64, i32, i32, ptr, ptr, ptr, ptr, %"struct.duckdb_zstd::buffer_s", %"struct.duckdb_zstd::range_t", %"struct.duckdb_zstd::range_t", i32, i32, i32, %"struct.duckdb_zstd::ZSTD_CCtx_params_s", ptr, i64, i64, i32 }
%"struct.duckdb_zstd::ZSTD_frameProgression" = type { i64, i64, i64, i64, i32, i32 }

; Function Attrs: mustprogress nounwind uwtable
define internal noundef i32 @_ZN11duckdb_zstdL11ERR_isErrorEm(i64 noundef %0) #0 {
  %2 = alloca i64, align 8
  store i64 %0, ptr %2, align 8, !tbaa !52
  %3 = load i64, ptr %2, align 8, !tbaa !52
  %4 = icmp ugt i64 %3, -120
  %5 = zext i1 %4 to i32
  ret i32 %5
}

; Function Attrs: mustprogress uwtable
define void @_ZN11duckdb_zstd26ZSTDMT_getFrameProgressionEPNS_13ZSTDMT_CCtx_sE(ptr dead_on_unwind noalias writable sret(%"struct.duckdb_zstd::ZSTD_frameProgression") align 8 %0, ptr noundef %1) #1 {
  %3 = alloca ptr, align 8
  %4 = alloca i32, align 4
  %5 = alloca i32, align 4
  %6 = alloca i32, align 4
  %7 = alloca ptr, align 8
  %8 = alloca i64, align 8
  %9 = alloca i64, align 8
  %10 = alloca i64, align 8
  store ptr %1, ptr %3, align 8, !tbaa !10
  br label %11

11:                                               ; preds = %2
  br label %12

12:                                               ; preds = %11
  %13 = load ptr, ptr %3, align 8, !tbaa !10
  %14 = getelementptr inbounds nuw %"struct.duckdb_zstd::ZSTDMT_CCtx_s", ptr %13, i32 0, i32 19
  %15 = load i64, ptr %14, align 8, !tbaa !88
  %16 = load ptr, ptr %3, align 8, !tbaa !10
  %17 = getelementptr inbounds nuw %"struct.duckdb_zstd::ZSTDMT_CCtx_s", ptr %16, i32 0, i32 9
  %18 = getelementptr inbounds nuw %"struct.duckdb_zstd::inBuff_t", ptr %17, i32 0, i32 2
  %19 = load i64, ptr %18, align 8, !tbaa !55
  %20 = add i64 %15, %19
  %21 = getelementptr inbounds nuw %"struct.duckdb_zstd::ZSTD_frameProgression", ptr %0, i32 0, i32 0
  store i64 %20, ptr %21, align 8, !tbaa !89
  %22 = load ptr, ptr %3, align 8, !tbaa !10
  %23 = getelementptr inbounds nuw %"struct.duckdb_zstd::ZSTDMT_CCtx_s", ptr %22, i32 0, i32 19
  %24 = load i64, ptr %23, align 8, !tbaa !88
  %25 = getelementptr inbounds nuw %"struct.duckdb_zstd::ZSTD_frameProgression", ptr %0, i32 0, i32 1
  store i64 %24, ptr %25, align 8, !tbaa !91
  %26 = load ptr, ptr %3, align 8, !tbaa !10
  %27 = getelementptr inbounds nuw %"struct.duckdb_zstd::ZSTDMT_CCtx_s", ptr %26, i32 0, i32 20
  %28 = load i64, ptr %27, align 8, !tbaa !92
  %29 = getelementptr inbounds nuw %"struct.duckdb_zstd::ZSTD_frameProgression", ptr %0, i32 0, i32 3
  store i64 %28, ptr %29, align 8, !tbaa !93
  %30 = getelementptr inbounds nuw %"struct.duckdb_zstd::ZSTD_frameProgression", ptr %0, i32 0, i32 2
  store i64 %28, ptr %30, align 8, !tbaa !94
  %31 = load ptr, ptr %3, align 8, !tbaa !10
  %32 = getelementptr inbounds nuw %"struct.duckdb_zstd::ZSTDMT_CCtx_s", ptr %31, i32 0, i32 15
  %33 = load i32, ptr %32, align 8, !tbaa !95
  %34 = getelementptr inbounds nuw %"struct.duckdb_zstd::ZSTD_frameProgression", ptr %0, i32 0, i32 4
  store i32 %33, ptr %34, align 8, !tbaa !96
  %35 = getelementptr inbounds nuw %"struct.duckdb_zstd::ZSTD_frameProgression", ptr %0, i32 0, i32 5
  store i32 0, ptr %35, align 4, !tbaa !97
  call void @llvm.lifetime.start.p0(i64 4, ptr %4) #12
  call void @llvm.lifetime.start.p0(i64 4, ptr %5) #12
  %36 = load ptr, ptr %3, align 8, !tbaa !10
  %37 = getelementptr inbounds nuw %"struct.duckdb_zstd::ZSTDMT_CCtx_s", ptr %36, i32 0, i32 15
  %38 = load i32, ptr %37, align 8, !tbaa !95
  %39 = load ptr, ptr %3, align 8, !tbaa !10
  %40 = getelementptr inbounds nuw %"struct.duckdb_zstd::ZSTDMT_CCtx_s", ptr %39, i32 0, i32 8
  %41 = load i32, ptr %40, align 8, !tbaa !98
  %42 = add i32 %38, %41
  store i32 %42, ptr %5, align 4, !tbaa !3
  br label %43

43:                                               ; preds = %12
  br label %44

44:                                               ; preds = %43
  br label %45

45:                                               ; preds = %44
  %46 = load ptr, ptr %3, align 8, !tbaa !10
  %47 = getelementptr inbounds nuw %"struct.duckdb_zstd::ZSTDMT_CCtx_s", ptr %46, i32 0, i32 14
  %48 = load i32, ptr %47, align 4, !tbaa !99
  store i32 %48, ptr %4, align 4, !tbaa !3
  br label %49

49:                                               ; preds = %119, %45
  %50 = load i32, ptr %4, align 4, !tbaa !3
  %51 = load i32, ptr %5, align 4, !tbaa !3
  %52 = icmp ult i32 %50, %51
  br i1 %52, label %53, label %122

53:                                               ; preds = %49
  call void @llvm.lifetime.start.p0(i64 4, ptr %6) #12
  %54 = load i32, ptr %4, align 4, !tbaa !3
  %55 = load ptr, ptr %3, align 8, !tbaa !10
  %56 = getelementptr inbounds nuw %"struct.duckdb_zstd::ZSTDMT_CCtx_s", ptr %55, i32 0, i32 13
  %57 = load i32, ptr %56, align 8, !tbaa !40
  %58 = and i32 %54, %57
  store i32 %58, ptr %6, align 4, !tbaa !3
  call void @llvm.lifetime.start.p0(i64 8, ptr %7) #12
  %59 = load ptr, ptr %3, align 8, !tbaa !10
  %60 = getelementptr inbounds nuw %"struct.duckdb_zstd::ZSTDMT_CCtx_s", ptr %59, i32 0, i32 1
  %61 = load ptr, ptr %60, align 8, !tbaa !39
  %62 = load i32, ptr %6, align 4, !tbaa !3
  %63 = zext i32 %62 to i64
  %64 = getelementptr inbounds nuw %"struct.duckdb_zstd::ZSTDMT_jobDescription", ptr %61, i64 %63
  store ptr %64, ptr %7, align 8, !tbaa !42
  call void @llvm.lifetime.start.p0(i64 8, ptr %8) #12
  %65 = load ptr, ptr %7, align 8, !tbaa !42
  %66 = getelementptr inbounds nuw %"struct.duckdb_zstd::ZSTDMT_jobDescription", ptr %65, i32 0, i32 1
  %67 = load i64, ptr %66, align 8, !tbaa !100
  store i64 %67, ptr %8, align 8, !tbaa !52
  call void @llvm.lifetime.start.p0(i64 8, ptr %9) #12
  %68 = load i64, ptr %8, align 8, !tbaa !52
  %69 = call noundef i32 @_ZN11duckdb_zstdL11ERR_isErrorEm(i64 noundef %68)
  %70 = icmp ne i32 %69, 0
  br i1 %70, label %71, label %72

71:                                               ; preds = %53
  br label %74

72:                                               ; preds = %53
  %73 = load i64, ptr %8, align 8, !tbaa !52
  br label %74

74:                                               ; preds = %72, %71
  %75 = phi i64 [ 0, %71 ], [ %73, %72 ]
  store i64 %75, ptr %9, align 8, !tbaa !52
  call void @llvm.lifetime.start.p0(i64 8, ptr %10) #12
  %76 = load i64, ptr %8, align 8, !tbaa !52
  %77 = call noundef i32 @_ZN11duckdb_zstdL11ERR_isErrorEm(i64 noundef %76)
  %78 = icmp ne i32 %77, 0
  br i1 %78, label %79, label %80

79:                                               ; preds = %74
  br label %84

80:                                               ; preds = %74
  %81 = load ptr, ptr %7, align 8, !tbaa !42
  %82 = getelementptr inbounds nuw %"struct.duckdb_zstd::ZSTDMT_jobDescription", ptr %81, i32 0, i32 17
  %83 = load i64, ptr %82, align 8, !tbaa !101
  br label %84

84:                                               ; preds = %80, %79
  %85 = phi i64 [ 0, %79 ], [ %83, %80 ]
  store i64 %85, ptr %10, align 8, !tbaa !52
  %86 = load ptr, ptr %7, align 8, !tbaa !42
  %87 = getelementptr inbounds nuw %"struct.duckdb_zstd::ZSTDMT_jobDescription", ptr %86, i32 0, i32 10
  %88 = getelementptr inbounds nuw %"struct.duckdb_zstd::range_t", ptr %87, i32 0, i32 1
  %89 = load i64, ptr %88, align 8, !tbaa !102
  %90 = getelementptr inbounds nuw %"struct.duckdb_zstd::ZSTD_frameProgression", ptr %0, i32 0, i32 0
  %91 = load i64, ptr %90, align 8, !tbaa !89
  %92 = add i64 %91, %89
  store i64 %92, ptr %90, align 8, !tbaa !89
  %93 = load ptr, ptr %7, align 8, !tbaa !42
  %94 = getelementptr inbounds nuw %"struct.duckdb_zstd::ZSTDMT_jobDescription", ptr %93, i32 0, i32 0
  %95 = load i64, ptr %94, align 8, !tbaa !103
  %96 = getelementptr inbounds nuw %"struct.duckdb_zstd::ZSTD_frameProgression", ptr %0, i32 0, i32 1
  %97 = load i64, ptr %96, align 8, !tbaa !91
  %98 = add i64 %97, %95
  store i64 %98, ptr %96, align 8, !tbaa !91
  %99 = load i64, ptr %9, align 8, !tbaa !52
  %100 = getelementptr inbounds nuw %"struct.duckdb_zstd::ZSTD_frameProgression", ptr %0, i32 0, i32 2
  %101 = load i64, ptr %100, align 8, !tbaa !94
  %102 = add i64 %101, %99
  store i64 %102, ptr %100, align 8, !tbaa !94
  %103 = load i64, ptr %10, align 8, !tbaa !52
  %104 = getelementptr inbounds nuw %"struct.duckdb_zstd::ZSTD_frameProgression", ptr %0, i32 0, i32 3
  %105 = load i64, ptr %104, align 8, !tbaa !93
  %106 = add i64 %105, %103
  store i64 %106, ptr %104, align 8, !tbaa !93
  %107 = load ptr, ptr %7, align 8, !tbaa !42
  %108 = getelementptr inbounds nuw %"struct.duckdb_zstd::ZSTDMT_jobDescription", ptr %107, i32 0, i32 0
  %109 = load i64, ptr %108, align 8, !tbaa !103
  %110 = load ptr, ptr %7, align 8, !tbaa !42
  %111 = getelementptr inbounds nuw %"struct.duckdb_zstd::ZSTDMT_jobDescription", ptr %110, i32 0, i32 10
  %112 = getelementptr inbounds nuw %"struct.duckdb_zstd::range_t", ptr %111, i32 0, i32 1
  %113 = load i64, ptr %112, align 8, !tbaa !102
  %114 = icmp ult i64 %109, %113
  %115 = zext i1 %114 to i32
  %116 = getelementptr inbounds nuw %"struct.duckdb_zstd::ZSTD_frameProgression", ptr %0, i32 0, i32 5
  %117 = load i32, ptr %116, align 4, !tbaa !97
  %118 = add i32 %117, %115
  store i32 %118, ptr %116, align 4, !tbaa !97
  call void @llvm.lifetime.end.p0(i64 8, ptr %10) #12
  call void @llvm.lifetime.end.p0(i64 8, ptr %9) #12
  call void @llvm.lifetime.end.p0(i64 8, ptr %8) #12
  call void @llvm.lifetime.end.p0(i64 8, ptr %7) #12
  call void @llvm.lifetime.end.p0(i64 4, ptr %6) #12
  br label %119

119:                                              ; preds = %84
  %120 = load i32, ptr %4, align 4, !tbaa !3
  %121 = add i32 %120, 1
  store i32 %121, ptr %4, align 4, !tbaa !3
  br label %49, !llvm.loop !104

122:                                              ; preds = %49
  call void @llvm.lifetime.end.p0(i64 4, ptr %5) #12
  call void @llvm.lifetime.end.p0(i64 4, ptr %4) #12
  ret void
}