; Function Attrs: mustprogress nofree norecurse nosync nounwind memory(read, argmem: readwrite, inaccessiblemem: none) uwtable
define void @_ZN11duckdb_zstd26ZSTDMT_getFrameProgressionEPNS_13ZSTDMT_CCtx_sE(ptr dead_on_unwind noalias writable writeonly sret(%"struct.duckdb_zstd::ZSTD_frameProgression") align 8 captures(none) initializes((32, 36)) %0, ptr noundef readonly captures(none) %1) local_unnamed_addr #5 {
  %3 = getelementptr inbounds nuw i8, ptr %1, i64 2880
  %4 = load i64, ptr %3, align 8, !tbaa !77
  %5 = getelementptr inbounds nuw i8, ptr %1, i64 312
  %6 = load i64, ptr %5, align 8, !tbaa !78
  %7 = add i64 %6, %4
  %8 = getelementptr inbounds nuw i8, ptr %1, i64 2888
  %9 = load i64, ptr %8, align 8, !tbaa !79
  %10 = getelementptr inbounds nuw i8, ptr %1, i64 2856
  %11 = load i32, ptr %10, align 8, !tbaa !80
  %12 = getelementptr inbounds nuw i8, ptr %0, i64 32
  store i32 %11, ptr %12, align 8, !tbaa !81
  %13 = getelementptr inbounds nuw i8, ptr %1, i64 272
  %14 = load i32, ptr %13, align 8, !tbaa !83
  %15 = add i32 %14, %11
  %16 = getelementptr inbounds nuw i8, ptr %1, i64 2852
  %17 = load i32, ptr %16, align 4, !tbaa !84
  %18 = icmp ult i32 %17, %15
  br i1 %18, label %.lr.ph, label %._crit_edge

.lr.ph:                                           ; preds = %2
  %19 = getelementptr inbounds nuw i8, ptr %1, i64 2848
  %20 = load i32, ptr %19, align 8, !tbaa !47
  %21 = getelementptr inbounds nuw i8, ptr %1, i64 8
  %22 = load ptr, ptr %21, align 8, !tbaa !35
  br label %23

23:                                               ; preds = %.lr.ph, %39
  %.034 = phi i32 [ %17, %.lr.ph ], [ %51, %39 ]
  %24 = phi i64 [ %7, %.lr.ph ], [ %43, %39 ]
  %25 = phi i64 [ %4, %.lr.ph ], [ %45, %39 ]
  %26 = phi i64 [ %9, %.lr.ph ], [ %46, %39 ]
  %27 = phi i64 [ %9, %.lr.ph ], [ %47, %39 ]
  %28 = phi i32 [ 0, %.lr.ph ], [ %50, %39 ]
  %29 = and i32 %20, %.034
  %30 = zext i32 %29 to i64
  %31 = getelementptr inbounds nuw %"struct.duckdb_zstd::ZSTDMT_jobDescription", ptr %22, i64 %30
  %32 = getelementptr inbounds nuw i8, ptr %31, i64 8
  %33 = load i64, ptr %32, align 8, !tbaa !85
  %34 = icmp ult i64 %33, -119
  %35 = select i1 %34, i64 %33, i64 0
  br i1 %34, label %36, label %39

36:                                               ; preds = %23
  %37 = getelementptr inbounds nuw i8, ptr %31, i64 352
  %38 = load i64, ptr %37, align 8, !tbaa !86
  br label %39

39:                                               ; preds = %23, %36
  %40 = phi i64 [ %38, %36 ], [ 0, %23 ]
  %41 = getelementptr inbounds nuw i8, ptr %31, i64 96
  %42 = load i64, ptr %41, align 8, !tbaa !87
  %43 = add i64 %24, %42
  %44 = load i64, ptr %31, align 8, !tbaa !88
  %45 = add i64 %25, %44
  %46 = add i64 %26, %35
  %47 = add i64 %27, %40
  %48 = icmp ult i64 %44, %42
  %49 = zext i1 %48 to i32
  %50 = add i32 %28, %49
  %51 = add nuw i32 %.034, 1
  %exitcond.not = icmp eq i32 %51, %15
  br i1 %exitcond.not, label %._crit_edge, label %23, !llvm.loop !89

._crit_edge:                                      ; preds = %39, %2
  %.lcssa33 = phi i32 [ 0, %2 ], [ %50, %39 ]
  %.lcssa31 = phi i64 [ %9, %2 ], [ %47, %39 ]
  %.lcssa29 = phi i64 [ %9, %2 ], [ %46, %39 ]
  %.lcssa27 = phi i64 [ %4, %2 ], [ %45, %39 ]
  %.lcssa = phi i64 [ %7, %2 ], [ %43, %39 ]
  %52 = getelementptr inbounds nuw i8, ptr %0, i64 36
  %53 = getelementptr inbounds nuw i8, ptr %0, i64 16
  %54 = getelementptr inbounds nuw i8, ptr %0, i64 24
  %55 = getelementptr inbounds nuw i8, ptr %0, i64 8
  store i64 %.lcssa, ptr %0, align 8
  store i64 %.lcssa27, ptr %55, align 8
  store i64 %.lcssa29, ptr %53, align 8
  store i64 %.lcssa31, ptr %54, align 8
  store i32 %.lcssa33, ptr %52, align 4
  ret void
}